; Function Attrs: nofree norecurse nosync nounwind memory(argmem: readwrite) uwtable
define internal void @read_yaf32le_alpha_c(ptr noundef writeonly captures(none) %0, ptr noundef readonly captures(none) %1, ptr readnone captures(none) %2, ptr readnone captures(none) %3, i32 noundef %4, ptr readnone captures(none) %5, ptr readnone captures(none) %6) #1 {
  %invariant.gep = getelementptr inbounds nuw i8, ptr %1, i64 4
  %8 = icmp sgt i32 %4, 0
  br i1 %8, label %.lr.ph.preheader, label %read_yaf32_alpha_c.exit

.lr.ph.preheader:                                 ; preds = %7
  %wide.trip.count = zext nneg i32 %4 to i64
  br label %.lr.ph

.lr.ph:                                           ; preds = %.lr.ph.preheader, %.lr.ph
  %indvars.iv = phi i64 [ 0, %.lr.ph.preheader ], [ %indvars.iv.next, %.lr.ph ]
  %gep.idx = shl nuw nsw i64 %indvars.iv, 3
  %gep = getelementptr inbounds nuw i8, ptr %invariant.gep, i64 %gep.idx
  %9 = load float, ptr %gep, align 1, !tbaa !34
  %10 = fmul nsz float %9, 6.553500e+04
  %11 = fcmp nsz ogt float %10, 0.000000e+00
  %12 = select nsz i1 %11, float %10, float 0.000000e+00
  %13 = fcmp nsz ogt float %12, 6.553500e+04
  %..i.i = select nsz i1 %13, float 6.553500e+04, float %12
  %14 = tail call i64 @llvm.lrint.i64.f32(float %..i.i)
  %15 = trunc i64 %14 to i16
  %16 = getelementptr inbounds nuw i16, ptr %0, i64 %indvars.iv
  store i16 %15, ptr %16, align 2, !tbaa !43
  %indvars.iv.next = add nuw nsw i64 %indvars.iv, 1
  %exitcond.not = icmp eq i64 %indvars.iv.next, %wide.trip.count
  br i1 %exitcond.not, label %read_yaf32_alpha_c.exit, label %.lr.ph, !llvm.loop !150

read_yaf32_alpha_c.exit:                          ; preds = %.lr.ph, %7
  ret void
}